target datalayout = "e-m:e-p270:32:32-p271:32:32-p272:64:64-i64:64-i128:128-f80:128-n8:16:32:64-S128"
target triple = "x86_64-pc-linux-gnu"

%struct.AVFilterContext = type { ptr, ptr, ptr, ptr, ptr, i32, ptr, ptr, i32, ptr, ptr, i32, i32, ptr, ptr, ptr, ptr, i32, ptr, i32, i32 }
%struct.DebandContext = type { ptr, i32, [4 x float], i32, i32, float, i32, [4 x i32], [4 x i32], [2 x i32], [4 x i32], ptr, ptr, ptr }
%struct.ThreadData = type { ptr, ptr }
%struct.AVFilterLink = type { ptr, ptr, ptr, ptr, i32, i32, i32, i32, %struct.AVRational, i32, i32, i32, %struct.AVChannelLayout, %struct.AVRational, ptr, i32, %struct.AVFilterFormatsConfig, %struct.AVFilterFormatsConfig }
%struct.AVChannelLayout = type { i32, i32, %union.anon.1, ptr }
%union.anon.1 = type { i64 }
%struct.AVRational = type { i32, i32 }
%struct.AVFilterFormatsConfig = type { ptr, ptr, ptr, ptr, ptr }

; Function Attrs: nounwind uwtable
define internal i32 @filter_frame(ptr noundef %0, ptr noundef %1) #1 {
  %3 = alloca i32, align 4
  %4 = alloca ptr, align 8
  %5 = alloca ptr, align 8
  %6 = alloca ptr, align 8
  %7 = alloca ptr, align 8
  %8 = alloca ptr, align 8
  %9 = alloca ptr, align 8
  %10 = alloca %struct.ThreadData, align 8
  %11 = alloca i32, align 4
  store ptr %0, ptr %4, align 8, !tbaa !33
  store ptr %1, ptr %5, align 8, !tbaa !35
  call void @llvm.lifetime.start.p0(i64 8, ptr %6) #10
  %12 = load ptr, ptr %4, align 8, !tbaa !33
  %13 = getelementptr inbounds nuw %struct.AVFilterLink, ptr %12, i32 0, i32 2
  %14 = load ptr, ptr %13, align 8, !tbaa !37
  store ptr %14, ptr %6, align 8, !tbaa !4
  call void @llvm.lifetime.start.p0(i64 8, ptr %7) #10
  %15 = load ptr, ptr %6, align 8, !tbaa !4
  %16 = getelementptr inbounds nuw %struct.AVFilterContext, ptr %15, i32 0, i32 7
  %17 = load ptr, ptr %16, align 8, !tbaa !45
  %18 = getelementptr inbounds ptr, ptr %17, i64 0
  %19 = load ptr, ptr %18, align 8, !tbaa !33
  store ptr %19, ptr %7, align 8, !tbaa !33
  call void @llvm.lifetime.start.p0(i64 8, ptr %8) #10
  %20 = load ptr, ptr %6, align 8, !tbaa !4
  %21 = getelementptr inbounds nuw %struct.AVFilterContext, ptr %20, i32 0, i32 9
  %22 = load ptr, ptr %21, align 8, !tbaa !9
  store ptr %22, ptr %8, align 8, !tbaa !22
  call void @llvm.lifetime.start.p0(i64 8, ptr %9) #10
  call void @llvm.lifetime.start.p0(i64 16, ptr %10) #10
  %23 = load ptr, ptr %7, align 8, !tbaa !33
  %24 = load ptr, ptr %7, align 8, !tbaa !33
  %25 = getelementptr inbounds nuw %struct.AVFilterLink, ptr %24, i32 0, i32 6
  %26 = load i32, ptr %25, align 8, !tbaa !46
  %27 = load ptr, ptr %7, align 8, !tbaa !33
  %28 = getelementptr inbounds nuw %struct.AVFilterLink, ptr %27, i32 0, i32 7
  %29 = load i32, ptr %28, align 4, !tbaa !47
  %30 = call ptr @ff_get_video_buffer(ptr noundef %23, i32 noundef %26, i32 noundef %29)
  store ptr %30, ptr %9, align 8, !tbaa !35
  %31 = load ptr, ptr %9, align 8, !tbaa !35
  %32 = icmp ne ptr %31, null
  br i1 %32, label %34, label %33

33:                                               ; preds = %2
  call void @av_frame_free(ptr noundef %5)
  store i32 -12, ptr %3, align 4
  store i32 1, ptr %11, align 4
  br label %101

34:                                               ; preds = %2
  %35 = load ptr, ptr %9, align 8, !tbaa !35
  %36 = load ptr, ptr %5, align 8, !tbaa !35
  %37 = call i32 @av_frame_copy_props(ptr noundef %35, ptr noundef %36)
  %38 = load ptr, ptr %5, align 8, !tbaa !35
  %39 = getelementptr inbounds nuw %struct.ThreadData, ptr %10, i32 0, i32 0
  store ptr %38, ptr %39, align 8, !tbaa !48
  %40 = load ptr, ptr %9, align 8, !tbaa !35
  %41 = getelementptr inbounds nuw %struct.ThreadData, ptr %10, i32 0, i32 1
  store ptr %40, ptr %41, align 8, !tbaa !50
  %42 = load ptr, ptr %6, align 8, !tbaa !4
  %43 = load ptr, ptr %8, align 8, !tbaa !22
  %44 = getelementptr inbounds nuw %struct.DebandContext, ptr %43, i32 0, i32 13
  %45 = load ptr, ptr %44, align 8, !tbaa !51
  %46 = load ptr, ptr %8, align 8, !tbaa !22
  %47 = getelementptr inbounds nuw %struct.DebandContext, ptr %46, i32 0, i32 8
  %48 = getelementptr inbounds [4 x i32], ptr %47, i64 0, i64 1
  %49 = load i32, ptr %48, align 4, !tbaa !31
  %50 = load ptr, ptr %8, align 8, !tbaa !22
  %51 = getelementptr inbounds nuw %struct.DebandContext, ptr %50, i32 0, i32 8
  %52 = getelementptr inbounds [4 x i32], ptr %51, i64 0, i64 2
  %53 = load i32, ptr %52, align 4, !tbaa !31
  %54 = icmp sgt i32 %49, %53
  br i1 %54, label %55, label %60

55:                                               ; preds = %34
  %56 = load ptr, ptr %8, align 8, !tbaa !22
  %57 = getelementptr inbounds nuw %struct.DebandContext, ptr %56, i32 0, i32 8
  %58 = getelementptr inbounds [4 x i32], ptr %57, i64 0, i64 2
  %59 = load i32, ptr %58, align 4, !tbaa !31
  br label %65

60:                                               ; preds = %34
  %61 = load ptr, ptr %8, align 8, !tbaa !22
  %62 = getelementptr inbounds nuw %struct.DebandContext, ptr %61, i32 0, i32 8
  %63 = getelementptr inbounds [4 x i32], ptr %62, i64 0, i64 1
  %64 = load i32, ptr %63, align 4, !tbaa !31
  br label %65

65:                                               ; preds = %60, %55
  %66 = phi i32 [ %59, %55 ], [ %64, %60 ]
  %67 = load ptr, ptr %6, align 8, !tbaa !4
  %68 = call i32 @ff_filter_get_nb_threads(ptr noundef %67) #11
  %69 = icmp sgt i32 %66, %68
  br i1 %69, label %70, label %73

70:                                               ; preds = %65
  %71 = load ptr, ptr %6, align 8, !tbaa !4
  %72 = call i32 @ff_filter_get_nb_threads(ptr noundef %71) #11
  br label %95

73:                                               ; preds = %65
  %74 = load ptr, ptr %8, align 8, !tbaa !22
  %75 = getelementptr inbounds nuw %struct.DebandContext, ptr %74, i32 0, i32 8
  %76 = getelementptr inbounds [4 x i32], ptr %75, i64 0, i64 1
  %77 = load i32, ptr %76, align 4, !tbaa !31
  %78 = load ptr, ptr %8, align 8, !tbaa !22
  %79 = getelementptr inbounds nuw %struct.DebandContext, ptr %78, i32 0, i32 8
  %80 = getelementptr inbounds [4 x i32], ptr %79, i64 0, i64 2
  %81 = load i32, ptr %80, align 4, !tbaa !31
  %82 = icmp sgt i32 %77, %81
  br i1 %82, label %83, label %88

83:                                               ; preds = %73
  %84 = load ptr, ptr %8, align 8, !tbaa !22
  %85 = getelementptr inbounds nuw %struct.DebandContext, ptr %84, i32 0, i32 8
  %86 = getelementptr inbounds [4 x i32], ptr %85, i64 0, i64 2
  %87 = load i32, ptr %86, align 4, !tbaa !31
  br label %93

88:                                               ; preds = %73
  %89 = load ptr, ptr %8, align 8, !tbaa !22
  %90 = getelementptr inbounds nuw %struct.DebandContext, ptr %89, i32 0, i32 8
  %91 = getelementptr inbounds [4 x i32], ptr %90, i64 0, i64 1
  %92 = load i32, ptr %91, align 4, !tbaa !31
  br label %93

93:                                               ; preds = %88, %83
  %94 = phi i32 [ %87, %83 ], [ %92, %88 ]
  br label %95

95:                                               ; preds = %93, %70
  %96 = phi i32 [ %72, %70 ], [ %94, %93 ]
  %97 = call i32 @ff_filter_execute(ptr noundef %42, ptr noundef %45, ptr noundef %10, ptr noundef null, i32 noundef %96)
  call void @av_frame_free(ptr noundef %5)
  %98 = load ptr, ptr %7, align 8, !tbaa !33
  %99 = load ptr, ptr %9, align 8, !tbaa !35
  %100 = call i32 @ff_filter_frame(ptr noundef %98, ptr noundef %99)
  store i32 %100, ptr %3, align 4
  store i32 1, ptr %11, align 4
  br label %101

101:                                              ; preds = %95, %33
  call void @llvm.lifetime.end.p0(i64 16, ptr %10) #10
  call void @llvm.lifetime.end.p0(i64 8, ptr %9) #10
  call void @llvm.lifetime.end.p0(i64 8, ptr %8) #10
  call void @llvm.lifetime.end.p0(i64 8, ptr %7) #10
  call void @llvm.lifetime.end.p0(i64 8, ptr %6) #10
  %102 = load i32, ptr %3, align 4
  ret i32 %102
}